target datalayout = "e-m:e-p270:32:32-p271:32:32-p272:64:64-i64:64-i128:128-f80:128-n8:16:32:64-S128"
target triple = "x86_64-unknown-linux-gnu"

%"class.absl::lts_20230802::log_internal::NullStream" = type { i8 }
%"class.google::protobuf::internal::EpsCopyInputStream" = type { ptr, ptr, ptr, i32, i32, ptr, [32 x i8], i64, i32, i32 }
%"struct.std::pair" = type <{ ptr, i8, [7 x i8] }>

; Function Attrs: mustprogress nounwind uwtable
define linkonce_odr noundef nonnull align 4 dereferenceable(4) ptr @_ZSt3minIiERKT_S2_S2_(ptr noundef nonnull align 4 dereferenceable(4) %__a, ptr noundef nonnull align 4 dereferenceable(4) %__b) #5 comdat {
entry:
  %retval = alloca ptr, align 8
  %__a.addr = alloca ptr, align 8
  %__b.addr = alloca ptr, align 8
  store ptr %__a, ptr %__a.addr, align 8
  store ptr %__b, ptr %__b.addr, align 8
  %0 = load ptr, ptr %__b.addr, align 8
  %1 = load i32, ptr %0, align 4
  %2 = load ptr, ptr %__a.addr, align 8
  %3 = load i32, ptr %2, align 4
  %cmp = icmp slt i32 %1, %3
  br i1 %cmp, label %if.then, label %if.end

if.then:                                          ; preds = %entry
  %4 = load ptr, ptr %__b.addr, align 8
  store ptr %4, ptr %retval, align 8
  br label %return

if.end:                                           ; preds = %entry
  %5 = load ptr, ptr %__a.addr, align 8
  store ptr %5, ptr %retval, align 8
  br label %return

return:                                           ; preds = %if.end, %if.then
  %6 = load ptr, ptr %retval, align 8
  ret ptr %6
}

; Function Attrs: mustprogress nounwind uwtable
define linkonce_odr hidden void @_ZNSt4pairIPKcbEC2IRS1_bTnNSt9enable_ifIXaaclsr5_PCCPE22_MoveConstructiblePairIT_T0_EEclsr5_PCCPE30_ImplicitlyMoveConvertiblePairIS6_S7_EEEbE4typeELb1EEEOS6_OS7_(ptr noundef nonnull align 8 dereferenceable(9) %this, ptr noundef nonnull align 8 dereferenceable(8) %__x, ptr noundef nonnull align 1 dereferenceable(1) %__y) unnamed_addr #5 comdat align 2 {
entry:
  %this.addr = alloca ptr, align 8
  %__x.addr = alloca ptr, align 8
  %__y.addr = alloca ptr, align 8
  store ptr %this, ptr %this.addr, align 8
  store ptr %__x, ptr %__x.addr, align 8
  store ptr %__y, ptr %__y.addr, align 8
  %this1 = load ptr, ptr %this.addr, align 8
  %first = getelementptr inbounds %"struct.std::pair", ptr %this1, i32 0, i32 0
  %0 = load ptr, ptr %__x.addr, align 8
  %1 = load ptr, ptr %0, align 8
  store ptr %1, ptr %first, align 8
  %second = getelementptr inbounds %"struct.std::pair", ptr %this1, i32 0, i32 1
  %2 = load ptr, ptr %__y.addr, align 8
  %3 = load i8, ptr %2, align 1
  %tobool = trunc i8 %3 to i1
  %frombool = zext i1 %tobool to i8
  store i8 %frombool, ptr %second, align 8
  ret void
}

; Function Attrs: mustprogress nounwind uwtable
define linkonce_odr hidden void @_ZN6google8protobuf8internal18EpsCopyInputStream14SetEndOfStreamEv(ptr noundef nonnull align 8 dereferenceable(88) %this) #5 comdat align 2 {
entry:
  %this.addr = alloca ptr, align 8
  store ptr %this, ptr %this.addr, align 8
  %this1 = load ptr, ptr %this.addr, align 8
  %last_tag_minus_1_ = getelementptr inbounds %"class.google::protobuf::internal::EpsCopyInputStream", ptr %this1, i32 0, i32 8
  store i32 1, ptr %last_tag_minus_1_, align 8
  ret void
}

; Function Attrs: mustprogress nounwind uwtable
define linkonce_odr hidden noundef nonnull align 1 dereferenceable(1) ptr @_ZN4absl12lts_2023080212log_internal10NullStream14InternalStreamEv(ptr noundef nonnull align 1 dereferenceable(1) %this) #5 comdat align 2 {
entry:
  %this.addr = alloca ptr, align 8
  store ptr %this, ptr %this.addr, align 8
  %this1 = load ptr, ptr %this.addr, align 8
  ret ptr %this1
}

; Function Attrs: mustprogress nounwind uwtable
define linkonce_odr hidden void @_ZNSt4pairIPKcbEC2IDnbTnNSt9enable_ifIXaaclsr5_PCCPE22_MoveConstructiblePairIT_T0_EEclsr5_PCCPE30_ImplicitlyMoveConvertiblePairIS5_S6_EEEbE4typeELb1EEEOS5_OS6_(ptr noundef nonnull align 8 dereferenceable(9) %this, ptr noundef nonnull align 8 dereferenceable(8) %__x, ptr noundef nonnull align 1 dereferenceable(1) %__y) unnamed_addr #5 comdat align 2 {
entry:
  %this.addr = alloca ptr, align 8
  %__x.addr = alloca ptr, align 8
  %__y.addr = alloca ptr, align 8
  store ptr %this, ptr %this.addr, align 8
  store ptr %__x, ptr %__x.addr, align 8
  store ptr %__y, ptr %__y.addr, align 8
  %this1 = load ptr, ptr %this.addr, align 8
  %first = getelementptr inbounds %"struct.std::pair", ptr %this1, i32 0, i32 0
  store ptr null, ptr %first, align 8
  %second = getelementptr inbounds %"struct.std::pair", ptr %this1, i32 0, i32 1
  %0 = load ptr, ptr %__y.addr, align 8
  %1 = load i8, ptr %0, align 1
  %tobool = trunc i8 %1 to i1
  %frombool = zext i1 %tobool to i8
  store i8 %frombool, ptr %second, align 8
  ret void
}

; Function Attrs: mustprogress uwtable
define { ptr, i8 } @_ZN6google8protobuf8internal18EpsCopyInputStream12DoneFallbackEii(ptr noundef nonnull align 8 dereferenceable(88) %this, i32 noundef %overrun, i32 noundef %depth) #4 align 2 {
entry:
  %retval = alloca %"struct.std::pair", align 8
  %this.addr = alloca ptr, align 8
  %overrun.addr = alloca i32, align 4
  %depth.addr = alloca i32, align 4
  %ref.tmp = alloca ptr, align 8
  %ref.tmp2 = alloca i8, align 1
  %ref.tmp3 = alloca %"class.absl::lts_20230802::log_internal::NullStream", align 1
  %p = alloca ptr, align 8
  %ref.tmp6 = alloca %"class.absl::lts_20230802::log_internal::NullStream", align 1
  %ref.tmp14 = alloca ptr, align 8
  %ref.tmp15 = alloca i8, align 1
  %ref.tmp19 = alloca %"class.absl::lts_20230802::log_internal::NullStream", align 1
  %ref.tmp23 = alloca i8, align 1
  %ref.tmp35 = alloca i32, align 4
  %ref.tmp41 = alloca i8, align 1
  store ptr %this, ptr %this.addr, align 8
  store i32 %overrun, ptr %overrun.addr, align 4
  store i32 %depth, ptr %depth.addr, align 4
  %this1 = load ptr, ptr %this.addr, align 8
  %0 = load i32, ptr %overrun.addr, align 4
  %limit_ = getelementptr inbounds %"class.google::protobuf::internal::EpsCopyInputStream", ptr %this1, i32 0, i32 4
  %1 = load i32, ptr %limit_, align 4
  %cmp = icmp sgt i32 %0, %1
  br i1 %cmp, label %if.then, label %if.end

if.then:                                          ; preds = %entry
  store ptr null, ptr %ref.tmp, align 8
  store i8 1, ptr %ref.tmp2, align 1
  call void @_ZNSt4pairIPKcbEC2IDnbTnNSt9enable_ifIXaaclsr5_PCCPE22_MoveConstructiblePairIT_T0_EEclsr5_PCCPE30_ImplicitlyMoveConvertiblePairIS5_S6_EEEbE4typeELb1EEEOS5_OS6_(ptr noundef nonnull align 8 dereferenceable(9) %retval, ptr noundef nonnull align 8 dereferenceable(8) %ref.tmp, ptr noundef nonnull align 1 dereferenceable(1) %ref.tmp2)
  br label %return

if.end:                                           ; preds = %entry
  br label %while.cond

while.cond:                                       ; preds = %while.body, %if.end
  br i1 false, label %while.body, label %while.end

while.body:                                       ; preds = %while.cond
  %call = call noundef nonnull align 1 dereferenceable(1) ptr @_ZN4absl12lts_2023080212log_internal10NullStream14InternalStreamEv(ptr noundef nonnull align 1 dereferenceable(1) %ref.tmp3)
  br label %while.cond, !llvm.loop !9

while.end:                                        ; preds = %while.cond
  br label %do.body

do.body:                                          ; preds = %do.cond, %while.end
  br label %while.cond4

while.cond4:                                      ; preds = %while.body5, %do.body
  br i1 false, label %while.body5, label %while.end8

while.body5:                                      ; preds = %while.cond4
  %call7 = call noundef nonnull align 1 dereferenceable(1) ptr @_ZN4absl12lts_2023080212log_internal10NullStream14InternalStreamEv(ptr noundef nonnull align 1 dereferenceable(1) %ref.tmp6)
  br label %while.cond4, !llvm.loop !10

while.end8:                                       ; preds = %while.cond4
  %2 = load i32, ptr %overrun.addr, align 4
  %3 = load i32, ptr %depth.addr, align 4
  %call9 = call noundef ptr @_ZN6google8protobuf8internal18EpsCopyInputStream10NextBufferEii(ptr noundef nonnull align 8 dereferenceable(88) %this1, i32 noundef %2, i32 noundef %3)
  store ptr %call9, ptr %p, align 8
  %4 = load ptr, ptr %p, align 8
  %cmp10 = icmp eq ptr %4, null
  br i1 %cmp10, label %if.then11, label %if.end24

if.then11:                                        ; preds = %while.end8
  %5 = load i32, ptr %overrun.addr, align 4
  %cmp12 = icmp ne i32 %5, 0
  br i1 %cmp12, label %if.then13, label %if.end16

if.then13:                                        ; preds = %if.then11
  store ptr null, ptr %ref.tmp14, align 8
  store i8 1, ptr %ref.tmp15, align 1
  call void @_ZNSt4pairIPKcbEC2IDnbTnNSt9enable_ifIXaaclsr5_PCCPE22_MoveConstructiblePairIT_T0_EEclsr5_PCCPE30_ImplicitlyMoveConvertiblePairIS5_S6_EEEbE4typeELb1EEEOS5_OS6_(ptr noundef nonnull align 8 dereferenceable(9) %retval, ptr noundef nonnull align 8 dereferenceable(8) %ref.tmp14, ptr noundef nonnull align 1 dereferenceable(1) %ref.tmp15)
  br label %return

if.end16:                                         ; preds = %if.then11
  br label %while.cond17

while.cond17:                                     ; preds = %while.body18, %if.end16
  br i1 false, label %while.body18, label %while.end21

while.body18:                                     ; preds = %while.cond17
  %call20 = call noundef nonnull align 1 dereferenceable(1) ptr @_ZN4absl12lts_2023080212log_internal10NullStream14InternalStreamEv(ptr noundef nonnull align 1 dereferenceable(1) %ref.tmp19)
  br label %while.cond17, !llvm.loop !11

while.end21:                                      ; preds = %while.cond17
  %buffer_end_ = getelementptr inbounds %"class.google::protobuf::internal::EpsCopyInputStream", ptr %this1, i32 0, i32 1
  %6 = load ptr, ptr %buffer_end_, align 8
  %limit_end_ = getelementptr inbounds %"class.google::protobuf::internal::EpsCopyInputStream", ptr %this1, i32 0, i32 0
  store ptr %6, ptr %limit_end_, align 8
  call void @_ZN6google8protobuf8internal18EpsCopyInputStream14SetEndOfStreamEv(ptr noundef nonnull align 8 dereferenceable(88) %this1)
  %buffer_end_22 = getelementptr inbounds %"class.google::protobuf::internal::EpsCopyInputStream", ptr %this1, i32 0, i32 1
  store i8 1, ptr %ref.tmp23, align 1
  call void @_ZNSt4pairIPKcbEC2IRS1_bTnNSt9enable_ifIXaaclsr5_PCCPE22_MoveConstructiblePairIT_T0_EEclsr5_PCCPE30_ImplicitlyMoveConvertiblePairIS6_S7_EEEbE4typeELb1EEEOS6_OS7_(ptr noundef nonnull align 8 dereferenceable(9) %retval, ptr noundef nonnull align 8 dereferenceable(8) %buffer_end_22, ptr noundef nonnull align 1 dereferenceable(1) %ref.tmp23)
  br label %return

if.end24:                                         ; preds = %while.end8
  %buffer_end_25 = getelementptr inbounds %"class.google::protobuf::internal::EpsCopyInputStream", ptr %this1, i32 0, i32 1
  %7 = load ptr, ptr %buffer_end_25, align 8
  %8 = load ptr, ptr %p, align 8
  %sub.ptr.lhs.cast = ptrtoint ptr %7 to i64
  %sub.ptr.rhs.cast = ptrtoint ptr %8 to i64
  %sub.ptr.sub = sub i64 %sub.ptr.lhs.cast, %sub.ptr.rhs.cast
  %limit_26 = getelementptr inbounds %"class.google::protobuf::internal::EpsCopyInputStream", ptr %this1, i32 0, i32 4
  %9 = load i32, ptr %limit_26, align 4
  %conv = sext i32 %9 to i64
  %sub = sub nsw i64 %conv, %sub.ptr.sub
  %conv27 = trunc i64 %sub to i32
  store i32 %conv27, ptr %limit_26, align 4
  %10 = load i32, ptr %overrun.addr, align 4
  %11 = load ptr, ptr %p, align 8
  %idx.ext = sext i32 %10 to i64
  %add.ptr = getelementptr inbounds i8, ptr %11, i64 %idx.ext
  store ptr %add.ptr, ptr %p, align 8
  %12 = load ptr, ptr %p, align 8
  %buffer_end_28 = getelementptr inbounds %"class.google::protobuf::internal::EpsCopyInputStream", ptr %this1, i32 0, i32 1
  %13 = load ptr, ptr %buffer_end_28, align 8
  %sub.ptr.lhs.cast29 = ptrtoint ptr %12 to i64
  %sub.ptr.rhs.cast30 = ptrtoint ptr %13 to i64
  %sub.ptr.sub31 = sub i64 %sub.ptr.lhs.cast29, %sub.ptr.rhs.cast30
  %conv32 = trunc i64 %sub.ptr.sub31 to i32
  store i32 %conv32, ptr %overrun.addr, align 4
  br label %do.cond

do.cond:                                          ; preds = %if.end24
  %14 = load i32, ptr %overrun.addr, align 4
  %cmp33 = icmp sge i32 %14, 0
  br i1 %cmp33, label %do.body, label %do.end, !llvm.loop !12

do.end:                                           ; preds = %do.cond
  %buffer_end_34 = getelementptr inbounds %"class.google::protobuf::internal::EpsCopyInputStream", ptr %this1, i32 0, i32 1
  %15 = load ptr, ptr %buffer_end_34, align 8
  store i32 0, ptr %ref.tmp35, align 4
  %limit_36 = getelementptr inbounds %"class.google::protobuf::internal::EpsCopyInputStream", ptr %this1, i32 0, i32 4
  %call37 = call noundef nonnull align 4 dereferenceable(4) ptr @_ZSt3minIiERKT_S2_S2_(ptr noundef nonnull align 4 dereferenceable(4) %ref.tmp35, ptr noundef nonnull align 4 dereferenceable(4) %limit_36)
  %16 = load i32, ptr %call37, align 4
  %idx.ext38 = sext i32 %16 to i64
  %add.ptr39 = getelementptr inbounds i8, ptr %15, i64 %idx.ext38
  %limit_end_40 = getelementptr inbounds %"class.google::protobuf::internal::EpsCopyInputStream", ptr %this1, i32 0, i32 0
  store ptr %add.ptr39, ptr %limit_end_40, align 8
  store i8 0, ptr %ref.tmp41, align 1
  call void @_ZNSt4pairIPKcbEC2IRS1_bTnNSt9enable_ifIXaaclsr5_PCCPE22_MoveConstructiblePairIT_T0_EEclsr5_PCCPE30_ImplicitlyMoveConvertiblePairIS6_S7_EEEbE4typeELb1EEEOS6_OS7_(ptr noundef nonnull align 8 dereferenceable(9) %retval, ptr noundef nonnull align 8 dereferenceable(8) %p, ptr noundef nonnull align 1 dereferenceable(1) %ref.tmp41)
  br label %return

return:                                           ; preds = %do.end, %while.end21, %if.then13, %if.then
  %17 = load { ptr, i8 }, ptr %retval, align 8
  ret { ptr, i8 } %17
}