; Function Attrs: mustprogress uwtable
define { ptr, i8 } @_ZN6google8protobuf8internal18EpsCopyInputStream12DoneFallbackEii(ptr noundef nonnull align 8 dereferenceable(88) %this, i32 noundef %overrun, i32 noundef %depth) local_unnamed_addr #4 align 2 {
entry:
  %limit_ = getelementptr inbounds nuw i8, ptr %this, i64 28
  %0 = load i32, ptr %limit_, align 4
  %cmp = icmp sgt i32 %overrun, %0
  br i1 %cmp, label %return, label %do.body.preheader

do.body.preheader:                                ; preds = %entry
  %buffer_end_25 = getelementptr inbounds nuw i8, ptr %this, i64 8
  br label %do.body

do.body:                                          ; preds = %do.body.preheader, %if.end24
  %overrun.addr.0 = phi i32 [ %conv32, %if.end24 ], [ %overrun, %do.body.preheader ]
  %call9 = tail call noundef ptr @_ZN6google8protobuf8internal18EpsCopyInputStream10NextBufferEii(ptr noundef nonnull align 8 dereferenceable(88) %this, i32 noundef %overrun.addr.0, i32 noundef %depth)
  %cmp10 = icmp eq ptr %call9, null
  br i1 %cmp10, label %if.then11, label %if.end24

if.then11:                                        ; preds = %do.body
  %cmp12.not = icmp eq i32 %overrun.addr.0, 0
  br i1 %cmp12.not, label %while.end21, label %return

while.end21:                                      ; preds = %if.then11
  %1 = load ptr, ptr %buffer_end_25, align 8
  store ptr %1, ptr %this, align 8
  %last_tag_minus_1_.i = getelementptr inbounds nuw i8, ptr %this, i64 80
  store i32 1, ptr %last_tag_minus_1_.i, align 8
  br label %return

if.end24:                                         ; preds = %do.body
  %2 = load ptr, ptr %buffer_end_25, align 8
  %sub.ptr.lhs.cast = ptrtoint ptr %2 to i64
  %sub.ptr.rhs.cast = ptrtoint ptr %call9 to i64
  %sub.ptr.sub.neg = sub i64 %sub.ptr.rhs.cast, %sub.ptr.lhs.cast
  %3 = load i32, ptr %limit_, align 4
  %4 = trunc i64 %sub.ptr.sub.neg to i32
  %conv27 = add i32 %3, %4
  store i32 %conv27, ptr %limit_, align 4
  %idx.ext = sext i32 %overrun.addr.0 to i64
  %add.ptr = getelementptr inbounds i8, ptr %call9, i64 %idx.ext
  %sub.ptr.lhs.cast29 = ptrtoint ptr %add.ptr to i64
  %sub.ptr.sub31 = sub i64 %sub.ptr.lhs.cast29, %sub.ptr.lhs.cast
  %conv32 = trunc i64 %sub.ptr.sub31 to i32
  %cmp33 = icmp sgt i32 %conv32, -1
  br i1 %cmp33, label %do.body, label %do.end, !llvm.loop !10

do.end:                                           ; preds = %if.end24
  %.sroa.speculated = tail call i32 @llvm.smin.i32(i32 %conv27, i32 0)
  %idx.ext38 = sext i32 %.sroa.speculated to i64
  %add.ptr39 = getelementptr inbounds i8, ptr %2, i64 %idx.ext38
  store ptr %add.ptr39, ptr %this, align 8
  br label %return

return:                                           ; preds = %if.then11, %entry, %do.end, %while.end21
  %retval.sroa.0.0 = phi ptr [ %1, %while.end21 ], [ %add.ptr, %do.end ], [ null, %entry ], [ null, %if.then11 ]
  %retval.sroa.5.0 = phi i8 [ 1, %while.end21 ], [ 0, %do.end ], [ 1, %entry ], [ 1, %if.then11 ]
  %.fca.0.insert = insertvalue { ptr, i8 } poison, ptr %retval.sroa.0.0, 0
  %.fca.1.insert = insertvalue { ptr, i8 } %.fca.0.insert, i8 %retval.sroa.5.0, 1
  ret { ptr, i8 } %.fca.1.insert
}